target datalayout = "e-m:e-p270:32:32-p271:32:32-p272:64:64-i64:64-i128:128-f80:128-n8:16:32:64-S128"
target triple = "x86_64-pc-linux-gnu"

%"class.draco::ObjDecoder" = type { i8, i32, i32, i32, i32, i32, i32, i32, i32, i32, i32, i32, i32, i8, i32, %"class.std::__cxx11::basic_string", %"class.std::__cxx11::basic_string", %"class.std::unordered_map", %"class.std::unordered_map", i8, i8, i8, ptr, %"class.draco::DecoderBuffer", ptr, ptr }
%"class.std::__cxx11::basic_string" = type { %"struct.std::__cxx11::basic_string<char>::_Alloc_hider", i64, %union.anon }
%"struct.std::__cxx11::basic_string<char>::_Alloc_hider" = type { ptr }
%union.anon = type { i64, [8 x i8] }
%"class.std::unordered_map" = type { %"class.std::_Hashtable" }
%"class.std::_Hashtable" = type { ptr, i64, %"struct.std::__detail::_Hash_node_base", i64, %"struct.std::__detail::_Prime_rehash_policy", ptr }
%"struct.std::__detail::_Hash_node_base" = type { ptr }
%"struct.std::__detail::_Prime_rehash_policy" = type { float, i64 }
%"class.draco::DecoderBuffer" = type <{ ptr, i64, i64, %"class.draco::DecoderBuffer::BitDecoder", i8, i8, i16, [4 x i8] }>
%"class.draco::DecoderBuffer::BitDecoder" = type { ptr, ptr, i64 }
%"class.draco::Status" = type { i32, %"class.std::__cxx11::basic_string" }

; Function Attrs: mustprogress nounwind uwtable
define linkonce_odr dso_local noundef i64 @_ZNK5draco13DecoderBuffer14remaining_sizeEv(ptr noundef nonnull align 8 dereferenceable(52) %0) #5 comdat align 2 {
  %2 = alloca ptr, align 8
  store ptr %0, ptr %2, align 8, !tbaa !98
  %3 = load ptr, ptr %2, align 8
  %4 = getelementptr inbounds nuw %"class.draco::DecoderBuffer", ptr %3, i32 0, i32 1
  %5 = load i64, ptr %4, align 8, !tbaa !102
  %6 = getelementptr inbounds nuw %"class.draco::DecoderBuffer", ptr %3, i32 0, i32 2
  %7 = load i64, ptr %6, align 8, !tbaa !101
  %8 = sub nsw i64 %5, %7
  ret i64 %8
}

; Function Attrs: mustprogress nounwind uwtable
define linkonce_odr dso_local noundef ptr @_ZNK5draco13DecoderBuffer9data_headEv(ptr noundef nonnull align 8 dereferenceable(52) %0) #5 comdat align 2 {
  %2 = alloca ptr, align 8
  store ptr %0, ptr %2, align 8, !tbaa !98
  %3 = load ptr, ptr %2, align 8
  %4 = getelementptr inbounds nuw %"class.draco::DecoderBuffer", ptr %3, i32 0, i32 0
  %5 = load ptr, ptr %4, align 8, !tbaa !100
  %6 = getelementptr inbounds nuw %"class.draco::DecoderBuffer", ptr %3, i32 0, i32 2
  %7 = load i64, ptr %6, align 8, !tbaa !101
  %8 = getelementptr inbounds i8, ptr %5, i64 %7
  ret ptr %8
}

; Function Attrs: mustprogress uwtable
define dso_local void @_ZN5draco10ObjDecoder16DecodeFromBufferEPNS_13DecoderBufferEPNS_10PointCloudE(ptr dead_on_unwind noalias writable sret(%"class.draco::Status") align 8 %0, ptr noundef nonnull align 8 dereferenceable(328) %1, ptr noundef %2, ptr noundef %3) #4 align 2 {
  %5 = alloca ptr, align 8
  %6 = alloca ptr, align 8
  %7 = alloca ptr, align 8
  %8 = alloca ptr, align 8
  store ptr %0, ptr %5, align 8
  store ptr %1, ptr %6, align 8, !tbaa !4
  store ptr %2, ptr %7, align 8, !tbaa !98
  store ptr %3, ptr %8, align 8, !tbaa !56
  %9 = load ptr, ptr %6, align 8
  %10 = load ptr, ptr %8, align 8, !tbaa !56
  %11 = getelementptr inbounds nuw %"class.draco::ObjDecoder", ptr %9, i32 0, i32 25
  store ptr %10, ptr %11, align 8, !tbaa !49
  %12 = getelementptr inbounds nuw %"class.draco::ObjDecoder", ptr %9, i32 0, i32 23
  %13 = load ptr, ptr %7, align 8, !tbaa !98
  %14 = call noundef ptr @_ZNK5draco13DecoderBuffer9data_headEv(ptr noundef nonnull align 8 dereferenceable(52) %13)
  %15 = load ptr, ptr %7, align 8, !tbaa !98
  %16 = call noundef i64 @_ZNK5draco13DecoderBuffer14remaining_sizeEv(ptr noundef nonnull align 8 dereferenceable(52) %15)
  call void @_ZN5draco13DecoderBuffer4InitEPKcm(ptr noundef nonnull align 8 dereferenceable(52) %12, ptr noundef %14, i64 noundef %16)
  call void @_ZN5draco10ObjDecoder14DecodeInternalEv(ptr dead_on_unwind writable sret(%"class.draco::Status") align 8 %0, ptr noundef nonnull align 8 dereferenceable(328) %9)
  ret void
}

; Function Attrs: mustprogress uwtable
define dso_local void @_ZN5draco10ObjDecoder16DecodeFromBufferEPNS_13DecoderBufferEPNS_4MeshE(ptr dead_on_unwind noalias writable sret(%"class.draco::Status") align 8 %0, ptr noundef nonnull align 8 dereferenceable(328) %1, ptr noundef %2, ptr noundef %3) #4 align 2 {
  %5 = alloca ptr, align 8
  %6 = alloca ptr, align 8
  %7 = alloca ptr, align 8
  %8 = alloca ptr, align 8
  store ptr %0, ptr %5, align 8
  store ptr %1, ptr %6, align 8, !tbaa !4
  store ptr %2, ptr %7, align 8, !tbaa !98
  store ptr %3, ptr %8, align 8, !tbaa !54
  %9 = load ptr, ptr %6, align 8
  %10 = load ptr, ptr %8, align 8, !tbaa !54
  %11 = getelementptr inbounds nuw %"class.draco::ObjDecoder", ptr %9, i32 0, i32 24
  store ptr %10, ptr %11, align 8, !tbaa !48
  %12 = load ptr, ptr %7, align 8, !tbaa !98
  %13 = load ptr, ptr %8, align 8, !tbaa !54
  call void @_ZN5draco10ObjDecoder16DecodeFromBufferEPNS_13DecoderBufferEPNS_10PointCloudE(ptr dead_on_unwind writable sret(%"class.draco::Status") align 8 %0, ptr noundef nonnull align 8 dereferenceable(328) %9, ptr noundef %12, ptr noundef %13)
  ret void
}