; Function Attrs: mustprogress uwtable
define dso_local void @_ZN5draco10ObjDecoder16DecodeFromBufferEPNS_13DecoderBufferEPNS_4MeshE(ptr dead_on_unwind noalias writable sret(%"class.draco::Status") align 8 %0, ptr noundef nonnull align 8 dereferenceable(328) initializes((312, 328)) %1, ptr noundef readonly captures(none) %2, ptr noundef %3) local_unnamed_addr #3 align 2 {
  %5 = getelementptr inbounds nuw i8, ptr %1, i64 312
  store ptr %3, ptr %5, align 8, !tbaa !42
  %6 = getelementptr inbounds nuw i8, ptr %1, i64 320
  store ptr %3, ptr %6, align 8, !tbaa !53, !noalias !145
  %7 = getelementptr inbounds nuw i8, ptr %1, i64 256
  %8 = load ptr, ptr %2, align 8, !tbaa !148, !noalias !145
  %9 = getelementptr inbounds nuw i8, ptr %2, i64 16
  %10 = load i64, ptr %9, align 8, !tbaa !136, !noalias !145
  %11 = getelementptr inbounds i8, ptr %8, i64 %10
  %12 = getelementptr inbounds nuw i8, ptr %2, i64 8
  %13 = load i64, ptr %12, align 8, !tbaa !149, !noalias !145
  %14 = sub nsw i64 %13, %10
  tail call void @_ZN5draco13DecoderBuffer4InitEPKcm(ptr noundef nonnull align 8 dereferenceable(52) %7, ptr noundef %11, i64 noundef %14), !noalias !145
  tail call void @_ZN5draco10ObjDecoder14DecodeInternalEv(ptr dead_on_unwind writable sret(%"class.draco::Status") align 8 %0, ptr noundef nonnull align 8 dereferenceable(328) %1)
  ret void
}